target datalayout = "e-m:e-p270:32:32-p271:32:32-p272:64:64-i64:64-i128:128-f80:128-n8:16:32:64-S128"
target triple = "x86_64-pc-linux-gnu"

@.str = private unnamed_addr constant [3 x i8] c"%c\00", align 1
@.str.3 = private unnamed_addr constant [31 x i8] c"  n=%2d  c=%2d  l=%d-%d   %6d\0A\00", align 1

; Function Attrs: nounwind uwtable
define internal i32 @Abc_Base2Log(i32 noundef %0) #0 {
  %2 = alloca i32, align 4
  %3 = alloca i32, align 4
  %4 = alloca i32, align 4
  store i32 %0, ptr %3, align 4
  %5 = load i32, ptr %3, align 4
  %6 = icmp ult i32 %5, 2
  br i1 %6, label %7, label %9

7:                                                ; preds = %1
  %8 = load i32, ptr %3, align 4
  store i32 %8, ptr %2, align 4
  br label %23

9:                                                ; preds = %1
  store i32 0, ptr %4, align 4
  %10 = load i32, ptr %3, align 4
  %11 = add i32 %10, -1
  store i32 %11, ptr %3, align 4
  br label %12

12:                                               ; preds = %16, %9
  %13 = load i32, ptr %3, align 4
  %14 = icmp ne i32 %13, 0
  br i1 %14, label %15, label %21

15:                                               ; preds = %12
  br label %16

16:                                               ; preds = %15
  %17 = load i32, ptr %3, align 4
  %18 = lshr i32 %17, 1
  store i32 %18, ptr %3, align 4
  %19 = load i32, ptr %4, align 4
  %20 = add nsw i32 %19, 1
  store i32 %20, ptr %4, align 4
  br label %12, !llvm.loop !23

21:                                               ; preds = %12
  %22 = load i32, ptr %4, align 4
  store i32 %22, ptr %2, align 4
  br label %23

23:                                               ; preds = %21, %7
  %24 = load i32, ptr %2, align 4
  ret i32 %24
}

; Function Attrs: nounwind uwtable
define i32 @Abc_ResCost(ptr noundef %0, ptr noundef %1, i32 noundef %2, ptr noundef %3, ptr noundef %4) #0 {
  %6 = alloca ptr, align 8
  %7 = alloca ptr, align 8
  %8 = alloca i32, align 4
  %9 = alloca ptr, align 8
  %10 = alloca ptr, align 8
  %11 = alloca i32, align 4
  %12 = alloca i32, align 4
  store ptr %0, ptr %6, align 8
  store ptr %1, ptr %7, align 8
  store i32 %2, ptr %8, align 4
  store ptr %3, ptr %9, align 8
  store ptr %4, ptr %10, align 8
  %13 = load ptr, ptr %6, align 8
  %14 = load ptr, ptr %7, align 8
  %15 = load i32, ptr %8, align 4
  %16 = load ptr, ptr %10, align 8
  %17 = call i32 @Abc_ResCofCount(ptr noundef %13, ptr noundef %14, i32 noundef %15, ptr noundef %16)
  store i32 %17, ptr %11, align 4
  %18 = load i32, ptr %11, align 4
  %19 = call i32 @Abc_Base2Log(i32 noundef %18)
  store i32 %19, ptr %12, align 4
  %20 = load ptr, ptr %9, align 8
  %21 = icmp ne ptr %20, null
  br i1 %21, label %22, label %25

22:                                               ; preds = %5
  %23 = load i32, ptr %11, align 4
  %24 = load ptr, ptr %9, align 8
  store i32 %23, ptr %24, align 4
  br label %25

25:                                               ; preds = %22, %5
  %26 = load i32, ptr %12, align 4
  %27 = mul nsw i32 10000, %26
  %28 = load i32, ptr %11, align 4
  %29 = load i32, ptr %12, align 4
  %30 = sub nsw i32 %29, 1
  %31 = shl i32 1, %30
  %32 = sub nsw i32 %28, %31
  %33 = load i32, ptr %11, align 4
  %34 = load i32, ptr %12, align 4
  %35 = sub nsw i32 %34, 1
  %36 = shl i32 1, %35
  %37 = sub nsw i32 %33, %36
  %38 = mul nsw i32 %32, %37
  %39 = add nsw i32 %27, %38
  ret i32 %39
}

; Function Attrs: nounwind uwtable
define internal i32 @Extra_WordCountOnes(i32 noundef %0) #0 {
  %2 = alloca i32, align 4
  store i32 %0, ptr %2, align 4
  %3 = load i32, ptr %2, align 4
  %4 = and i32 %3, 1431655765
  %5 = load i32, ptr %2, align 4
  %6 = lshr i32 %5, 1
  %7 = and i32 %6, 1431655765
  %8 = add i32 %4, %7
  store i32 %8, ptr %2, align 4
  %9 = load i32, ptr %2, align 4
  %10 = and i32 %9, 858993459
  %11 = load i32, ptr %2, align 4
  %12 = lshr i32 %11, 2
  %13 = and i32 %12, 858993459
  %14 = add i32 %10, %13
  store i32 %14, ptr %2, align 4
  %15 = load i32, ptr %2, align 4
  %16 = and i32 %15, 252645135
  %17 = load i32, ptr %2, align 4
  %18 = lshr i32 %17, 4
  %19 = and i32 %18, 252645135
  %20 = add i32 %16, %19
  store i32 %20, ptr %2, align 4
  %21 = load i32, ptr %2, align 4
  %22 = and i32 %21, 16711935
  %23 = load i32, ptr %2, align 4
  %24 = lshr i32 %23, 8
  %25 = and i32 %24, 16711935
  %26 = add i32 %22, %25
  store i32 %26, ptr %2, align 4
  %27 = load i32, ptr %2, align 4
  %28 = and i32 %27, 65535
  %29 = load i32, ptr %2, align 4
  %30 = lshr i32 %29, 16
  %31 = add i32 %28, %30
  ret i32 %31
}

; Function Attrs: nounwind uwtable
define void @Abc_ResPrintAllCofs(ptr noundef %0, ptr noundef %1, i32 noundef %2, i32 noundef %3) #0 {
  %5 = alloca ptr, align 8
  %6 = alloca ptr, align 8
  %7 = alloca i32, align 4
  %8 = alloca i32, align 4
  %9 = alloca i32, align 4
  %10 = alloca i32, align 4
  %11 = alloca i32, align 4
  %12 = alloca i32, align 4
  %13 = alloca i32, align 4
  %14 = alloca i32, align 4
  store ptr %0, ptr %5, align 8
  store ptr %1, ptr %6, align 8
  store i32 %2, ptr %7, align 4
  store i32 %3, ptr %8, align 4
  store i32 0, ptr %9, align 4
  br label %15

15:                                               ; preds = %68, %4
  %16 = load i32, ptr %9, align 4
  %17 = load i32, ptr %7, align 4
  %18 = shl i32 1, %17
  %19 = icmp slt i32 %16, %18
  br i1 %19, label %20, label %71

20:                                               ; preds = %15
  %21 = load i32, ptr %9, align 4
  %22 = call i32 @Extra_WordCountOnes(i32 noundef %21)
  store i32 %22, ptr %11, align 4
  %23 = load i32, ptr %11, align 4
  %24 = icmp slt i32 %23, 3
  br i1 %24, label %28, label %25

25:                                               ; preds = %20
  %26 = load i32, ptr %11, align 4
  %27 = icmp sgt i32 %26, 6
  br i1 %27, label %28, label %29

28:                                               ; preds = %25, %20
  br label %68

29:                                               ; preds = %25
  %30 = load ptr, ptr %5, align 8
  %31 = load ptr, ptr %6, align 8
  %32 = load i32, ptr %9, align 4
  %33 = call i32 @Abc_ResCost(ptr noundef %30, ptr noundef %31, i32 noundef %32, ptr noundef %12, ptr noundef %14)
  store i32 %33, ptr %13, align 4
  %34 = load i32, ptr %12, align 4
  %35 = load i32, ptr %8, align 4
  %36 = icmp sgt i32 %34, %35
  br i1 %36, label %37, label %38

37:                                               ; preds = %29
  br label %68

38:                                               ; preds = %29
  store i32 0, ptr %10, align 4
  br label %39

39:                                               ; preds = %56, %38
  %40 = load i32, ptr %10, align 4
  %41 = load i32, ptr %7, align 4
  %42 = icmp slt i32 %40, %41
  br i1 %42, label %43, label %59

43:                                               ; preds = %39
  %44 = load i32, ptr %9, align 4
  %45 = load i32, ptr %10, align 4
  %46 = shl i32 1, %45
  %47 = and i32 %44, %46
  %48 = icmp ne i32 %47, 0
  br i1 %48, label %49, label %52

49:                                               ; preds = %43
  %50 = load i32, ptr %10, align 4
  %51 = add nsw i32 97, %50
  br label %53

52:                                               ; preds = %43
  br label %53

53:                                               ; preds = %52, %49
  %54 = phi i32 [ %51, %49 ], [ 45, %52 ]
  %55 = call i32 (ptr, ...) @printf(ptr noundef @.str, i32 noundef %54)
  br label %56

56:                                               ; preds = %53
  %57 = load i32, ptr %10, align 4
  %58 = add nsw i32 %57, 1
  store i32 %58, ptr %10, align 4
  br label %39, !llvm.loop !28

59:                                               ; preds = %39
  %60 = load i32, ptr %9, align 4
  %61 = call i32 @Extra_WordCountOnes(i32 noundef %60)
  %62 = load i32, ptr %12, align 4
  %63 = load i32, ptr %12, align 4
  %64 = call i32 @Abc_Base2Log(i32 noundef %63)
  %65 = load i32, ptr %14, align 4
  %66 = load i32, ptr %13, align 4
  %67 = call i32 (ptr, ...) @printf(ptr noundef @.str.3, i32 noundef %61, i32 noundef %62, i32 noundef %64, i32 noundef %65, i32 noundef %66)
  br label %68

68:                                               ; preds = %59, %37, %28
  %69 = load i32, ptr %9, align 4
  %70 = add nsw i32 %69, 1
  store i32 %70, ptr %9, align 4
  br label %15, !llvm.loop !29

71:                                               ; preds = %15
  ret void
}