; Function Attrs: nounwind uwtable
define void @Abc_ResPrintAllCofs(ptr noundef %0, ptr noundef %1, i32 noundef %2, i32 noundef %3) local_unnamed_addr #0 {
  %5 = alloca i32, align 4
  %.not = icmp eq i32 %2, 31
  br i1 %.not, label %._crit_edge24, label %.lr.ph23

.lr.ph23:                                         ; preds = %4
  %6 = shl nuw i32 1, %2
  %7 = icmp sgt i32 %2, 0
  %smax27 = tail call i32 @llvm.smax.i32(i32 %6, i32 1)
  br i1 %7, label %.lr.ph23.split.us, label %.lr.ph23.split

.lr.ph23.split.us:                                ; preds = %.lr.ph23, %45
  %.021.us = phi i32 [ %46, %45 ], [ 0, %.lr.ph23 ]
  %8 = and i32 %.021.us, 1431655765
  %9 = lshr i32 %.021.us, 1
  %10 = and i32 %9, 357913941
  %11 = add nuw nsw i32 %10, %8
  %12 = and i32 %11, 858993459
  %13 = lshr i32 %11, 2
  %14 = and i32 %13, 322122547
  %15 = add nuw nsw i32 %14, %12
  %16 = and i32 %15, 117901063
  %17 = lshr i32 %15, 4
  %18 = and i32 %17, 117901063
  %19 = add nuw nsw i32 %18, %16
  %20 = and i32 %19, 983055
  %21 = lshr i32 %19, 8
  %22 = and i32 %21, 983055
  %23 = add nuw nsw i32 %22, %20
  %24 = and i32 %23, 31
  %25 = lshr i32 %23, 16
  %26 = add nuw nsw i32 %24, %25
  %27 = add nsw i32 %26, -7
  %or.cond.us = icmp ult i32 %27, -4
  br i1 %or.cond.us, label %45, label %28

28:                                               ; preds = %.lr.ph23.split.us
  %29 = call i32 @Abc_ResCofCount(ptr noundef %0, ptr noundef %1, i32 noundef %.021.us, ptr noundef nonnull %5)
  %30 = icmp ult i32 %29, 2
  %31 = add i32 %29, -1
  %32 = call range(i32 0, 33) i32 @llvm.ctlz.i32(i32 %31, i1 true)
  %33 = sub nuw nsw i32 32, %32
  %.09.i.i.us = select i1 %30, i32 %29, i32 %33
  %34 = mul nsw i32 %.09.i.i.us, 10000
  %35 = add nsw i32 %.09.i.i.us, -1
  %.neg.i.us = shl nsw i32 -1, %35
  %36 = add i32 %.neg.i.us, %29
  %37 = mul nsw i32 %36, %36
  %38 = add nsw i32 %37, %34
  %39 = icmp sgt i32 %29, %3
  br i1 %39, label %45, label %.preheader.us

.preheader.us:                                    ; preds = %28, %.preheader.us
  %.01820.us = phi i32 [ %44, %.preheader.us ], [ 0, %28 ]
  %40 = shl nuw i32 1, %.01820.us
  %41 = and i32 %40, %.021.us
  %.not.us = icmp eq i32 %41, 0
  %42 = add nuw nsw i32 %.01820.us, 97
  %43 = select i1 %.not.us, i32 45, i32 %42
  %putchar.us = call i32 @putchar(i32 %43)
  %44 = add nuw nsw i32 %.01820.us, 1
  %exitcond26.not = icmp eq i32 %44, %2
  br i1 %exitcond26.not, label %._crit_edge.us, label %.preheader.us, !llvm.loop !24

45:                                               ; preds = %._crit_edge.us, %28, %.lr.ph23.split.us
  %46 = add nuw nsw i32 %.021.us, 1
  %exitcond28.not = icmp eq i32 %46, %smax27
  br i1 %exitcond28.not, label %._crit_edge24, label %.lr.ph23.split.us, !llvm.loop !25

._crit_edge.us:                                   ; preds = %.preheader.us
  %47 = load i32, ptr %5, align 4
  %48 = call i32 (ptr, ...) @printf(ptr noundef nonnull dereferenceable(1) @.str.3, i32 noundef %26, i32 noundef %29, i32 noundef %.09.i.i.us, i32 noundef %47, i32 noundef %38)
  br label %45

.lr.ph23.split:                                   ; preds = %.lr.ph23, %83
  %.021 = phi i32 [ %84, %83 ], [ 0, %.lr.ph23 ]
  %49 = and i32 %.021, 1431655765
  %50 = lshr i32 %.021, 1
  %51 = and i32 %50, 357913941
  %52 = add nuw nsw i32 %51, %49
  %53 = and i32 %52, 858993459
  %54 = lshr i32 %52, 2
  %55 = and i32 %54, 322122547
  %56 = add nuw nsw i32 %55, %53
  %57 = and i32 %56, 117901063
  %58 = lshr i32 %56, 4
  %59 = and i32 %58, 117901063
  %60 = add nuw nsw i32 %59, %57
  %61 = and i32 %60, 983055
  %62 = lshr i32 %60, 8
  %63 = and i32 %62, 983055
  %64 = add nuw nsw i32 %63, %61
  %65 = and i32 %64, 31
  %66 = lshr i32 %64, 16
  %67 = add nuw nsw i32 %65, %66
  %68 = add nsw i32 %67, -7
  %or.cond = icmp ult i32 %68, -4
  br i1 %or.cond, label %83, label %69

69:                                               ; preds = %.lr.ph23.split
  %70 = call i32 @Abc_ResCofCount(ptr noundef %0, ptr noundef %1, i32 noundef %.021, ptr noundef nonnull %5)
  %71 = icmp sgt i32 %70, %3
  br i1 %71, label %83, label %.preheader

.preheader:                                       ; preds = %69
  %72 = icmp ult i32 %70, 2
  %73 = add i32 %70, -1
  %74 = call range(i32 0, 33) i32 @llvm.ctlz.i32(i32 %73, i1 true)
  %75 = sub nuw nsw i32 32, %74
  %.09.i.i = select i1 %72, i32 %70, i32 %75
  %76 = add nsw i32 %.09.i.i, -1
  %.neg.i = shl nsw i32 -1, %76
  %77 = add i32 %.neg.i, %70
  %78 = mul nsw i32 %77, %77
  %79 = mul nsw i32 %.09.i.i, 10000
  %80 = add nsw i32 %78, %79
  %81 = load i32, ptr %5, align 4
  %82 = call i32 (ptr, ...) @printf(ptr noundef nonnull dereferenceable(1) @.str.3, i32 noundef %67, i32 noundef %70, i32 noundef %.09.i.i, i32 noundef %81, i32 noundef %80)
  br label %83

83:                                               ; preds = %69, %.lr.ph23.split, %.preheader
  %84 = add nuw nsw i32 %.021, 1
  %exitcond.not = icmp eq i32 %84, %smax27
  br i1 %exitcond.not, label %._crit_edge24, label %.lr.ph23.split, !llvm.loop !25

._crit_edge24:                                    ; preds = %83, %45, %4
  ret void
}